
main.elf:     file format elf32-littlearm


Disassembly of section .text:

40300000 <main>:
40300000:	e52db004 	push	{fp}		; (str fp, [sp, #-4]!)
40300004:	e28db000 	add	fp, sp, #0
40300008:	e24dd014 	sub	sp, sp, #20
4030000c:	e59f364c 	ldr	r3, [pc, #1612]	; 40300660 <main+0x660>
40300010:	e59f264c 	ldr	r2, [pc, #1612]	; 40300664 <main+0x664>
40300014:	e5832000 	str	r2, [r3]
40300018:	e59f3640 	ldr	r3, [pc, #1600]	; 40300660 <main+0x660>
4030001c:	e5933000 	ldr	r3, [r3]
40300020:	e59f2640 	ldr	r2, [pc, #1600]	; 40300668 <main+0x668>
40300024:	e5832000 	str	r2, [r3]
40300028:	e59f3630 	ldr	r3, [pc, #1584]	; 40300660 <main+0x660>
4030002c:	e59f2638 	ldr	r2, [pc, #1592]	; 4030066c <main+0x66c>
40300030:	e5832000 	str	r2, [r3]
40300034:	e59f3624 	ldr	r3, [pc, #1572]	; 40300660 <main+0x660>
40300038:	e5933000 	ldr	r3, [r3]
4030003c:	e3a02002 	mov	r2, #2
40300040:	e5832000 	str	r2, [r3]
40300044:	e59f3614 	ldr	r3, [pc, #1556]	; 40300660 <main+0x660>
40300048:	e59f2620 	ldr	r2, [pc, #1568]	; 40300670 <main+0x670>
4030004c:	e5832000 	str	r2, [r3]
40300050:	e1a00000 	nop			; (mov r0, r0)
40300054:	e59f3604 	ldr	r3, [pc, #1540]	; 40300660 <main+0x660>
40300058:	e5933000 	ldr	r3, [r3]
4030005c:	e5933000 	ldr	r3, [r3]
40300060:	e3530000 	cmp	r3, #0
40300064:	1afffffa 	bne	40300054 <main+0x54>
40300068:	e59f35f0 	ldr	r3, [pc, #1520]	; 40300660 <main+0x660>
4030006c:	e59f25f8 	ldr	r2, [pc, #1528]	; 4030066c <main+0x66c>
40300070:	e5832000 	str	r2, [r3]
40300074:	e59f35e4 	ldr	r3, [pc, #1508]	; 40300660 <main+0x660>
40300078:	e5933000 	ldr	r3, [r3]
4030007c:	e3a02008 	mov	r2, #8
40300080:	e5832000 	str	r2, [r3]
40300084:	e59f35d4 	ldr	r3, [pc, #1492]	; 40300660 <main+0x660>
40300088:	e59f25e4 	ldr	r2, [pc, #1508]	; 40300674 <main+0x674>
4030008c:	e5832000 	str	r2, [r3]
40300090:	e59f35c8 	ldr	r3, [pc, #1480]	; 40300660 <main+0x660>
40300094:	e5933000 	ldr	r3, [r3]
40300098:	e3a02000 	mov	r2, #0
4030009c:	e5832000 	str	r2, [r3]
403000a0:	e59f35b8 	ldr	r3, [pc, #1464]	; 40300660 <main+0x660>
403000a4:	e59f25cc 	ldr	r2, [pc, #1484]	; 40300678 <main+0x678>
403000a8:	e5832000 	str	r2, [r3]
403000ac:	e59f35ac 	ldr	r3, [pc, #1452]	; 40300660 <main+0x660>
403000b0:	e5933000 	ldr	r3, [r3]
403000b4:	e3a0200e 	mov	r2, #14
403000b8:	e5832000 	str	r2, [r3]
403000bc:	e59f359c 	ldr	r3, [pc, #1436]	; 40300660 <main+0x660>
403000c0:	e59f25b4 	ldr	r2, [pc, #1460]	; 4030067c <main+0x67c>
403000c4:	e5832000 	str	r2, [r3]
403000c8:	e59f3590 	ldr	r3, [pc, #1424]	; 40300660 <main+0x660>
403000cc:	e5933000 	ldr	r3, [r3]
403000d0:	e3a0200e 	mov	r2, #14
403000d4:	e5832000 	str	r2, [r3]
403000d8:	e59f3580 	ldr	r3, [pc, #1408]	; 40300660 <main+0x660>
403000dc:	e59f259c 	ldr	r2, [pc, #1436]	; 40300680 <main+0x680>
403000e0:	e5832000 	str	r2, [r3]
403000e4:	e59f3574 	ldr	r3, [pc, #1396]	; 40300660 <main+0x660>
403000e8:	e5933000 	ldr	r3, [r3]
403000ec:	e3a0200e 	mov	r2, #14
403000f0:	e5832000 	str	r2, [r3]
403000f4:	e59f3564 	ldr	r3, [pc, #1380]	; 40300660 <main+0x660>
403000f8:	e59f2584 	ldr	r2, [pc, #1412]	; 40300684 <main+0x684>
403000fc:	e5832000 	str	r2, [r3]
40300100:	e59f3558 	ldr	r3, [pc, #1368]	; 40300660 <main+0x660>
40300104:	e5933000 	ldr	r3, [r3]
40300108:	e3a0200e 	mov	r2, #14
4030010c:	e5832000 	str	r2, [r3]
40300110:	e59f3548 	ldr	r3, [pc, #1352]	; 40300660 <main+0x660>
40300114:	e59f256c 	ldr	r2, [pc, #1388]	; 40300688 <main+0x688>
40300118:	e5832000 	str	r2, [r3]
4030011c:	e59f353c 	ldr	r3, [pc, #1340]	; 40300660 <main+0x660>
40300120:	e5933000 	ldr	r3, [r3]
40300124:	e3a02000 	mov	r2, #0
40300128:	e5832000 	str	r2, [r3]
4030012c:	e59f352c 	ldr	r3, [pc, #1324]	; 40300660 <main+0x660>
40300130:	e5933000 	ldr	r3, [r3]
40300134:	e3a02080 	mov	r2, #128	; 0x80
40300138:	e5832000 	str	r2, [r3]
4030013c:	e3a03000 	mov	r3, #0
40300140:	e50b3008 	str	r3, [fp, #-8]
40300144:	ea000002 	b	40300154 <main+0x154>
40300148:	e51b3008 	ldr	r3, [fp, #-8]
4030014c:	e2833001 	add	r3, r3, #1
40300150:	e50b3008 	str	r3, [fp, #-8]
40300154:	e51b3008 	ldr	r3, [fp, #-8]
40300158:	e59f252c 	ldr	r2, [pc, #1324]	; 4030068c <main+0x68c>
4030015c:	e1530002 	cmp	r3, r2
40300160:	dafffff8 	ble	40300148 <main+0x148>
40300164:	e59f34f4 	ldr	r3, [pc, #1268]	; 40300660 <main+0x660>
40300168:	e5933000 	ldr	r3, [r3]
4030016c:	e5932000 	ldr	r2, [r3]
40300170:	e59f34e8 	ldr	r3, [pc, #1256]	; 40300660 <main+0x660>
40300174:	e5933000 	ldr	r3, [r3]
40300178:	e3822901 	orr	r2, r2, #16384	; 0x4000
4030017c:	e5832000 	str	r2, [r3]
40300180:	e3a03000 	mov	r3, #0
40300184:	e50b300c 	str	r3, [fp, #-12]
40300188:	ea000002 	b	40300198 <main+0x198>
4030018c:	e51b300c 	ldr	r3, [fp, #-12]
40300190:	e2833001 	add	r3, r3, #1
40300194:	e50b300c 	str	r3, [fp, #-12]
40300198:	e51b300c 	ldr	r3, [fp, #-12]
4030019c:	e59f24e8 	ldr	r2, [pc, #1256]	; 4030068c <main+0x68c>
403001a0:	e1530002 	cmp	r3, r2
403001a4:	dafffff8 	ble	4030018c <main+0x18c>
403001a8:	e59f34b0 	ldr	r3, [pc, #1200]	; 40300660 <main+0x660>
403001ac:	e5933000 	ldr	r3, [r3]
403001b0:	e5932000 	ldr	r2, [r3]
403001b4:	e59f34a4 	ldr	r3, [pc, #1188]	; 40300660 <main+0x660>
403001b8:	e5933000 	ldr	r3, [r3]
403001bc:	e3822902 	orr	r2, r2, #32768	; 0x8000
403001c0:	e5832000 	str	r2, [r3]
403001c4:	e3a03000 	mov	r3, #0
403001c8:	e50b3010 	str	r3, [fp, #-16]
403001cc:	ea000002 	b	403001dc <main+0x1dc>
403001d0:	e51b3010 	ldr	r3, [fp, #-16]
403001d4:	e2833001 	add	r3, r3, #1
403001d8:	e50b3010 	str	r3, [fp, #-16]
403001dc:	e51b3010 	ldr	r3, [fp, #-16]
403001e0:	e59f24a4 	ldr	r2, [pc, #1188]	; 4030068c <main+0x68c>
403001e4:	e1530002 	cmp	r3, r2
403001e8:	dafffff8 	ble	403001d0 <main+0x1d0>
403001ec:	e59f346c 	ldr	r3, [pc, #1132]	; 40300660 <main+0x660>
403001f0:	e5933000 	ldr	r3, [r3]
403001f4:	e5932000 	ldr	r2, [r3]
403001f8:	e59f3460 	ldr	r3, [pc, #1120]	; 40300660 <main+0x660>
403001fc:	e5933000 	ldr	r3, [r3]
40300200:	e3822802 	orr	r2, r2, #131072	; 0x20000
40300204:	e5832000 	str	r2, [r3]
40300208:	e3a03000 	mov	r3, #0
4030020c:	e50b3014 	str	r3, [fp, #-20]	; 0xffffffec
40300210:	ea000002 	b	40300220 <main+0x220>
40300214:	e51b3014 	ldr	r3, [fp, #-20]	; 0xffffffec
40300218:	e2833001 	add	r3, r3, #1
4030021c:	e50b3014 	str	r3, [fp, #-20]	; 0xffffffec
40300220:	e51b3014 	ldr	r3, [fp, #-20]	; 0xffffffec
40300224:	e59f2460 	ldr	r2, [pc, #1120]	; 4030068c <main+0x68c>
40300228:	e1530002 	cmp	r3, r2
4030022c:	dafffff8 	ble	40300214 <main+0x214>
40300230:	e59f3428 	ldr	r3, [pc, #1064]	; 40300660 <main+0x660>
40300234:	e5933000 	ldr	r3, [r3]
40300238:	e3a02000 	mov	r2, #0
4030023c:	e5832000 	str	r2, [r3]
40300240:	e59f3448 	ldr	r3, [pc, #1096]	; 40300690 <main+0x690>
40300244:	e59f2448 	ldr	r2, [pc, #1096]	; 40300694 <main+0x694>
40300248:	e5832000 	str	r2, [r3]
4030024c:	e59f3444 	ldr	r3, [pc, #1092]	; 40300698 <main+0x698>
40300250:	e59f2444 	ldr	r2, [pc, #1092]	; 4030069c <main+0x69c>
40300254:	e5832000 	str	r2, [r3]
40300258:	e59f3440 	ldr	r3, [pc, #1088]	; 403006a0 <main+0x6a0>
4030025c:	e59f2440 	ldr	r2, [pc, #1088]	; 403006a4 <main+0x6a4>
40300260:	e5832000 	str	r2, [r3]
40300264:	e59f343c 	ldr	r3, [pc, #1084]	; 403006a8 <main+0x6a8>
40300268:	e59f243c 	ldr	r2, [pc, #1084]	; 403006ac <main+0x6ac>
4030026c:	e5832000 	str	r2, [r3]
40300270:	e59f3438 	ldr	r3, [pc, #1080]	; 403006b0 <main+0x6b0>
40300274:	e59f2438 	ldr	r2, [pc, #1080]	; 403006b4 <main+0x6b4>
40300278:	e5832000 	str	r2, [r3]
4030027c:	e59f3434 	ldr	r3, [pc, #1076]	; 403006b8 <main+0x6b8>
40300280:	e59f2434 	ldr	r2, [pc, #1076]	; 403006bc <main+0x6bc>
40300284:	e5832000 	str	r2, [r3]
40300288:	e59f3430 	ldr	r3, [pc, #1072]	; 403006c0 <main+0x6c0>
4030028c:	e59f2428 	ldr	r2, [pc, #1064]	; 403006bc <main+0x6bc>
40300290:	e5832000 	str	r2, [r3]
40300294:	e59f3428 	ldr	r3, [pc, #1064]	; 403006c4 <main+0x6c4>
40300298:	e59f2428 	ldr	r2, [pc, #1064]	; 403006c8 <main+0x6c8>
4030029c:	e5832000 	str	r2, [r3]
403002a0:	e59f3424 	ldr	r3, [pc, #1060]	; 403006cc <main+0x6cc>
403002a4:	e59f241c 	ldr	r2, [pc, #1052]	; 403006c8 <main+0x6c8>
403002a8:	e5832000 	str	r2, [r3]
403002ac:	e59f341c 	ldr	r3, [pc, #1052]	; 403006d0 <main+0x6d0>
403002b0:	e59f23fc 	ldr	r2, [pc, #1020]	; 403006b4 <main+0x6b4>
403002b4:	e5832000 	str	r2, [r3]
403002b8:	e59f3414 	ldr	r3, [pc, #1044]	; 403006d4 <main+0x6d4>
403002bc:	e59f2414 	ldr	r2, [pc, #1044]	; 403006d8 <main+0x6d8>
403002c0:	e5832000 	str	r2, [r3]
403002c4:	e59f3410 	ldr	r3, [pc, #1040]	; 403006dc <main+0x6dc>
403002c8:	e59f2410 	ldr	r2, [pc, #1040]	; 403006e0 <main+0x6e0>
403002cc:	e5832000 	str	r2, [r3]
403002d0:	e59f340c 	ldr	r3, [pc, #1036]	; 403006e4 <main+0x6e4>
403002d4:	e59f240c 	ldr	r2, [pc, #1036]	; 403006e8 <main+0x6e8>
403002d8:	e5832000 	str	r2, [r3]
403002dc:	e59f3408 	ldr	r3, [pc, #1032]	; 403006ec <main+0x6ec>
403002e0:	e59f2408 	ldr	r2, [pc, #1032]	; 403006f0 <main+0x6f0>
403002e4:	e5832000 	str	r2, [r3]
403002e8:	e59f33e0 	ldr	r3, [pc, #992]	; 403006d0 <main+0x6d0>
403002ec:	e59f23c0 	ldr	r2, [pc, #960]	; 403006b4 <main+0x6b4>
403002f0:	e5832000 	str	r2, [r3]
403002f4:	e59f33f8 	ldr	r3, [pc, #1016]	; 403006f4 <main+0x6f4>
403002f8:	e59f23f8 	ldr	r2, [pc, #1016]	; 403006f8 <main+0x6f8>
403002fc:	e5832000 	str	r2, [r3]
40300300:	e59f33f4 	ldr	r3, [pc, #1012]	; 403006fc <main+0x6fc>
40300304:	e59f23f4 	ldr	r2, [pc, #1012]	; 40300700 <main+0x700>
40300308:	e5832000 	str	r2, [r3]
4030030c:	e59f33e8 	ldr	r3, [pc, #1000]	; 403006fc <main+0x6fc>
40300310:	e5933000 	ldr	r3, [r3]
40300314:	e5932000 	ldr	r2, [r3]
40300318:	e59f33dc 	ldr	r3, [pc, #988]	; 403006fc <main+0x6fc>
4030031c:	e5933000 	ldr	r3, [r3]
40300320:	e3c22401 	bic	r2, r2, #16777216	; 0x1000000
40300324:	e5832000 	str	r2, [r3]
40300328:	e59f33cc 	ldr	r3, [pc, #972]	; 403006fc <main+0x6fc>
4030032c:	e5933000 	ldr	r3, [r3]
40300330:	e5932000 	ldr	r2, [r3]
40300334:	e59f33c0 	ldr	r3, [pc, #960]	; 403006fc <main+0x6fc>
40300338:	e5933000 	ldr	r3, [r3]
4030033c:	e3822002 	orr	r2, r2, #2
40300340:	e5832000 	str	r2, [r3]
40300344:	e59f33b0 	ldr	r3, [pc, #944]	; 403006fc <main+0x6fc>
40300348:	e59f23b4 	ldr	r2, [pc, #948]	; 40300704 <main+0x704>
4030034c:	e5832000 	str	r2, [r3]
40300350:	e59f33a4 	ldr	r3, [pc, #932]	; 403006fc <main+0x6fc>
40300354:	e5933000 	ldr	r3, [r3]
40300358:	e3a02000 	mov	r2, #0
4030035c:	e5832000 	str	r2, [r3]
40300360:	e59f3394 	ldr	r3, [pc, #916]	; 403006fc <main+0x6fc>
40300364:	e59f239c 	ldr	r2, [pc, #924]	; 40300708 <main+0x708>
40300368:	e5832000 	str	r2, [r3]
4030036c:	e59f3388 	ldr	r3, [pc, #904]	; 403006fc <main+0x6fc>
40300370:	e5933000 	ldr	r3, [r3]
40300374:	e3a02000 	mov	r2, #0
40300378:	e5832000 	str	r2, [r3]
4030037c:	e59f330c 	ldr	r3, [pc, #780]	; 40300690 <main+0x690>
40300380:	e5933000 	ldr	r3, [r3]
40300384:	e5932000 	ldr	r2, [r3]
40300388:	e59f3300 	ldr	r3, [pc, #768]	; 40300690 <main+0x690>
4030038c:	e5933000 	ldr	r3, [r3]
40300390:	e3822002 	orr	r2, r2, #2
40300394:	e5832000 	str	r2, [r3]
40300398:	e1a00000 	nop			; (mov r0, r0)
4030039c:	e59f32f4 	ldr	r3, [pc, #756]	; 40300698 <main+0x698>
403003a0:	e5933000 	ldr	r3, [r3]
403003a4:	e5933000 	ldr	r3, [r3]
403003a8:	e2033001 	and	r3, r3, #1
403003ac:	e3530000 	cmp	r3, #0
403003b0:	0afffff9 	beq	4030039c <main+0x39c>
403003b4:	e59f32e4 	ldr	r3, [pc, #740]	; 403006a0 <main+0x6a0>
403003b8:	e5933000 	ldr	r3, [r3]
403003bc:	e3a020bf 	mov	r2, #191	; 0xbf
403003c0:	e5832000 	str	r2, [r3]
403003c4:	e59f32f8 	ldr	r3, [pc, #760]	; 403006c4 <main+0x6c4>
403003c8:	e5933000 	ldr	r3, [r3]
403003cc:	e5932000 	ldr	r2, [r3]
403003d0:	e59f32ec 	ldr	r3, [pc, #748]	; 403006c4 <main+0x6c4>
403003d4:	e5933000 	ldr	r3, [r3]
403003d8:	e3822010 	orr	r2, r2, #16
403003dc:	e5832000 	str	r2, [r3]
403003e0:	e59f32b8 	ldr	r3, [pc, #696]	; 403006a0 <main+0x6a0>
403003e4:	e5933000 	ldr	r3, [r3]
403003e8:	e5932000 	ldr	r2, [r3]
403003ec:	e59f32ac 	ldr	r3, [pc, #684]	; 403006a0 <main+0x6a0>
403003f0:	e5933000 	ldr	r3, [r3]
403003f4:	e3c2207f 	bic	r2, r2, #127	; 0x7f
403003f8:	e5832000 	str	r2, [r3]
403003fc:	e59f32d8 	ldr	r3, [pc, #728]	; 403006dc <main+0x6dc>
40300400:	e5933000 	ldr	r3, [r3]
40300404:	e5932000 	ldr	r2, [r3]
40300408:	e59f32cc 	ldr	r3, [pc, #716]	; 403006dc <main+0x6dc>
4030040c:	e5933000 	ldr	r3, [r3]
40300410:	e3822040 	orr	r2, r2, #64	; 0x40
40300414:	e5832000 	str	r2, [r3]
40300418:	e59f32bc 	ldr	r3, [pc, #700]	; 403006dc <main+0x6dc>
4030041c:	e5933000 	ldr	r3, [r3]
40300420:	e5932000 	ldr	r2, [r3]
40300424:	e59f32b0 	ldr	r3, [pc, #688]	; 403006dc <main+0x6dc>
40300428:	e5933000 	ldr	r3, [r3]
4030042c:	e3c22020 	bic	r2, r2, #32
40300430:	e5832000 	str	r2, [r3]
40300434:	e59f3288 	ldr	r3, [pc, #648]	; 403006c4 <main+0x6c4>
40300438:	e5933000 	ldr	r3, [r3]
4030043c:	e5932000 	ldr	r2, [r3]
40300440:	e59f327c 	ldr	r3, [pc, #636]	; 403006c4 <main+0x6c4>
40300444:	e5933000 	ldr	r3, [r3]
40300448:	e3c22020 	bic	r2, r2, #32
4030044c:	e5832000 	str	r2, [r3]
40300450:	e59f326c 	ldr	r3, [pc, #620]	; 403006c4 <main+0x6c4>
40300454:	e5933000 	ldr	r3, [r3]
40300458:	e5932000 	ldr	r2, [r3]
4030045c:	e59f3260 	ldr	r3, [pc, #608]	; 403006c4 <main+0x6c4>
40300460:	e5933000 	ldr	r3, [r3]
40300464:	e3c2200f 	bic	r2, r2, #15
40300468:	e5832000 	str	r2, [r3]
4030046c:	e59f322c 	ldr	r3, [pc, #556]	; 403006a0 <main+0x6a0>
40300470:	e5933000 	ldr	r3, [r3]
40300474:	e3a020bf 	mov	r2, #191	; 0xbf
40300478:	e5832000 	str	r2, [r3]
4030047c:	e59f3240 	ldr	r3, [pc, #576]	; 403006c4 <main+0x6c4>
40300480:	e5933000 	ldr	r3, [r3]
40300484:	e5932000 	ldr	r2, [r3]
40300488:	e59f3234 	ldr	r3, [pc, #564]	; 403006c4 <main+0x6c4>
4030048c:	e5933000 	ldr	r3, [r3]
40300490:	e3822010 	orr	r2, r2, #16
40300494:	e5832000 	str	r2, [r3]
40300498:	e59f3200 	ldr	r3, [pc, #512]	; 403006a0 <main+0x6a0>
4030049c:	e5933000 	ldr	r3, [r3]
403004a0:	e5932000 	ldr	r2, [r3]
403004a4:	e59f31f4 	ldr	r3, [pc, #500]	; 403006a0 <main+0x6a0>
403004a8:	e5933000 	ldr	r3, [r3]
403004ac:	e3c22080 	bic	r2, r2, #128	; 0x80
403004b0:	e5832000 	str	r2, [r3]
403004b4:	e59f31e4 	ldr	r3, [pc, #484]	; 403006a0 <main+0x6a0>
403004b8:	e5933000 	ldr	r3, [r3]
403004bc:	e5932000 	ldr	r2, [r3]
403004c0:	e59f31d8 	ldr	r3, [pc, #472]	; 403006a0 <main+0x6a0>
403004c4:	e5933000 	ldr	r3, [r3]
403004c8:	e3c22010 	bic	r2, r2, #16
403004cc:	e5832000 	str	r2, [r3]
403004d0:	e59f31c8 	ldr	r3, [pc, #456]	; 403006a0 <main+0x6a0>
403004d4:	e5933000 	ldr	r3, [r3]
403004d8:	e3a020bf 	mov	r2, #191	; 0xbf
403004dc:	e5832000 	str	r2, [r3]
403004e0:	e59f31c8 	ldr	r3, [pc, #456]	; 403006b0 <main+0x6b0>
403004e4:	e5933000 	ldr	r3, [r3]
403004e8:	e3a0201a 	mov	r2, #26
403004ec:	e5832000 	str	r2, [r3]
403004f0:	e59f31c0 	ldr	r3, [pc, #448]	; 403006b8 <main+0x6b8>
403004f4:	e5933000 	ldr	r3, [r3]
403004f8:	e3a02000 	mov	r2, #0
403004fc:	e5832000 	str	r2, [r3]
40300500:	e59f31c4 	ldr	r3, [pc, #452]	; 403006cc <main+0x6cc>
40300504:	e5933000 	ldr	r3, [r3]
40300508:	e5932000 	ldr	r2, [r3]
4030050c:	e59f31b8 	ldr	r3, [pc, #440]	; 403006cc <main+0x6cc>
40300510:	e5933000 	ldr	r3, [r3]
40300514:	e3c22001 	bic	r2, r2, #1
40300518:	e5832000 	str	r2, [r3]
4030051c:	e59f317c 	ldr	r3, [pc, #380]	; 403006a0 <main+0x6a0>
40300520:	e5933000 	ldr	r3, [r3]
40300524:	e5932000 	ldr	r2, [r3]
40300528:	e59f3170 	ldr	r3, [pc, #368]	; 403006a0 <main+0x6a0>
4030052c:	e5933000 	ldr	r3, [r3]
40300530:	e3c2203f 	bic	r2, r2, #63	; 0x3f
40300534:	e5832000 	str	r2, [r3]
40300538:	e59f3160 	ldr	r3, [pc, #352]	; 403006a0 <main+0x6a0>
4030053c:	e5933000 	ldr	r3, [r3]
40300540:	e5932000 	ldr	r2, [r3]
40300544:	e59f3154 	ldr	r3, [pc, #340]	; 403006a0 <main+0x6a0>
40300548:	e5933000 	ldr	r3, [r3]
4030054c:	e3822003 	orr	r2, r2, #3
40300550:	e5832000 	str	r2, [r3]
40300554:	e59f3144 	ldr	r3, [pc, #324]	; 403006a0 <main+0x6a0>
40300558:	e5933000 	ldr	r3, [r3]
4030055c:	e5932000 	ldr	r2, [r3]
40300560:	e59f3138 	ldr	r3, [pc, #312]	; 403006a0 <main+0x6a0>
40300564:	e5933000 	ldr	r3, [r3]
40300568:	e3c22080 	bic	r2, r2, #128	; 0x80
4030056c:	e5832000 	str	r2, [r3]
40300570:	e59f3128 	ldr	r3, [pc, #296]	; 403006a0 <main+0x6a0>
40300574:	e5933000 	ldr	r3, [r3]
40300578:	e5932000 	ldr	r2, [r3]
4030057c:	e59f311c 	ldr	r3, [pc, #284]	; 403006a0 <main+0x6a0>
40300580:	e5933000 	ldr	r3, [r3]
40300584:	e3c22040 	bic	r2, r2, #64	; 0x40
40300588:	e5832000 	str	r2, [r3]
4030058c:	e59f3114 	ldr	r3, [pc, #276]	; 403006a8 <main+0x6a8>
40300590:	e5933000 	ldr	r3, [r3]
40300594:	e5932000 	ldr	r2, [r3]
40300598:	e59f3108 	ldr	r3, [pc, #264]	; 403006a8 <main+0x6a8>
4030059c:	e5933000 	ldr	r3, [r3]
403005a0:	e3c22007 	bic	r2, r2, #7
403005a4:	e5832000 	str	r2, [r3]
403005a8:	e59f315c 	ldr	r3, [pc, #348]	; 4030070c <main+0x70c>
403005ac:	e3a02000 	mov	r2, #0
403005b0:	e5c32000 	strb	r2, [r3]
403005b4:	e59f3138 	ldr	r3, [pc, #312]	; 403006f4 <main+0x6f4>
403005b8:	e5933000 	ldr	r3, [r3]
403005bc:	e5933000 	ldr	r3, [r3]
403005c0:	e2033020 	and	r3, r3, #32
403005c4:	e3530000 	cmp	r3, #0
403005c8:	0a000015 	beq	40300624 <main+0x624>
403005cc:	e59f3138 	ldr	r3, [pc, #312]	; 4030070c <main+0x70c>
403005d0:	e5d33000 	ldrb	r3, [r3]
403005d4:	e1a02003 	mov	r2, r3
403005d8:	e59f3130 	ldr	r3, [pc, #304]	; 40300710 <main+0x710>
403005dc:	e7d32002 	ldrb	r2, [r3, r2]
403005e0:	e59f30e8 	ldr	r3, [pc, #232]	; 403006d0 <main+0x6d0>
403005e4:	e5933000 	ldr	r3, [r3]
403005e8:	e5832000 	str	r2, [r3]
403005ec:	e59f306c 	ldr	r3, [pc, #108]	; 40300660 <main+0x660>
403005f0:	e5933000 	ldr	r3, [r3]
403005f4:	e5932000 	ldr	r2, [r3]
403005f8:	e59f3060 	ldr	r3, [pc, #96]	; 40300660 <main+0x660>
403005fc:	e5933000 	ldr	r3, [r3]
40300600:	e3822080 	orr	r2, r2, #128	; 0x80
40300604:	e5832000 	str	r2, [r3]
40300608:	e59f30fc 	ldr	r3, [pc, #252]	; 4030070c <main+0x70c>
4030060c:	e5d33000 	ldrb	r3, [r3]
40300610:	e2833001 	add	r3, r3, #1
40300614:	e20320ff 	and	r2, r3, #255	; 0xff
40300618:	e59f30ec 	ldr	r3, [pc, #236]	; 4030070c <main+0x70c>
4030061c:	e5c32000 	strb	r2, [r3]
40300620:	ea000006 	b	40300640 <main+0x640>
40300624:	e59f3034 	ldr	r3, [pc, #52]	; 40300660 <main+0x660>
40300628:	e5933000 	ldr	r3, [r3]
4030062c:	e5932000 	ldr	r2, [r3]
40300630:	e59f3028 	ldr	r3, [pc, #40]	; 40300660 <main+0x660>
40300634:	e5933000 	ldr	r3, [r3]
40300638:	e3c22080 	bic	r2, r2, #128	; 0x80
4030063c:	e5832000 	str	r2, [r3]
40300640:	e59f30c4 	ldr	r3, [pc, #196]	; 4030070c <main+0x70c>
40300644:	e5d33000 	ldrb	r3, [r3]
40300648:	e3530011 	cmp	r3, #17
4030064c:	1affffd8 	bne	403005b4 <main+0x5b4>
40300650:	e59f30b4 	ldr	r3, [pc, #180]	; 4030070c <main+0x70c>
40300654:	e3a02000 	mov	r2, #0
40300658:	e5c32000 	strb	r2, [r3]
4030065c:	eaffffd4 	b	403005b4 <main+0x5b4>
40300660:	40300728 	eorsmi	r0, r0, r8, lsr #14
40300664:	4a009768 	bmi	4032640c <msgCount+0x25ca0>
40300668:	00000101 	andeq	r0, r0, r1, lsl #2
4030066c:	48057114 	stmdami	r5, {r2, r4, r8, ip, sp, lr}
40300670:	48057010 	stmdami	r5, {r4, ip, sp, lr}
40300674:	48057134 	stmdami	r5, {r2, r4, r5, r8, ip, sp, lr}
40300678:	4a003500 	bmi	4030da80 <msgCount+0xd314>
4030067c:	4a00351c 	bmi	4030daf4 <msgCount+0xd388>
40300680:	4a003520 	bmi	4030db08 <msgCount+0xd39c>
40300684:	4a003528 	bmi	4030db2c <msgCount+0xd3c0>
40300688:	4805713c 	stmdami	r5, {r2, r3, r4, r5, r8, ip, sp, lr}
4030068c:	0007fffe 	strdeq	pc, [r7], -lr
40300690:	40300730 	eorsmi	r0, r0, r0, lsr r7
40300694:	4806a054 	stmdami	r6, {r2, r4, r6, sp, pc}
40300698:	40300734 	eorsmi	r0, r0, r4, lsr r7
4030069c:	4806a058 	stmdami	r6, {r3, r4, r6, sp, pc}
403006a0:	40300738 	eorsmi	r0, r0, r8, lsr r7
403006a4:	4806a00c 	stmdami	r6, {r2, r3, sp, pc}
403006a8:	4030073c 	eorsmi	r0, r0, ip, lsr r7
403006ac:	4806a020 	stmdami	r6, {r5, sp, pc}
403006b0:	40300740 	eorsmi	r0, r0, r0, asr #14
403006b4:	4806a000 	stmdami	r6, {sp, pc}
403006b8:	40300744 	eorsmi	r0, r0, r4, asr #14
403006bc:	4806a004 	stmdami	r6, {r2, sp, pc}
403006c0:	40300748 	eorsmi	r0, r0, r8, asr #14
403006c4:	4030074c 	eorsmi	r0, r0, ip, asr #14
403006c8:	4806a008 	stmdami	r6, {r3, sp, pc}
403006cc:	40300750 	eorsmi	r0, r0, r0, asr r7
403006d0:	40300754 	eorsmi	r0, r0, r4, asr r7
403006d4:	40300758 	eorsmi	r0, r0, r8, asr r7
403006d8:	4806a044 	stmdami	r6, {r2, r6, sp, pc}
403006dc:	4030075c 	eorsmi	r0, r0, ip, asr r7
403006e0:	4806a010 	stmdami	r6, {r4, sp, pc}
403006e4:	40300760 	eorsmi	r0, r0, r0, ror #14
403006e8:	4806a01c 	stmdami	r6, {r2, r3, r4, sp, pc}
403006ec:	40300764 	eorsmi	r0, r0, r4, ror #14
403006f0:	4806a018 	stmdami	r6, {r3, r4, sp, pc}
403006f4:	40300768 	eorsmi	r0, r0, r8, ror #14
403006f8:	4806a014 	stmdami	r6, {r2, r4, sp, pc}
403006fc:	4030072c 	eorsmi	r0, r0, ip, lsr #14
40300700:	4a009840 	bmi	40326808 <msgCount+0x2609c>
40300704:	4a0037e4 	bmi	4030e69c <msgCount+0xdf30>
40300708:	4a0037e0 	bmi	4030e690 <msgCount+0xdf24>
4030070c:	4030076c 	eorsmi	r0, r0, ip, ror #14
40300710:	40300714 	eorsmi	r0, r0, r4, lsl r7

Disassembly of section .data:

40300714 <msg>:
40300714:	6c6c6568 	cfstr64vs	mvdx6, [ip], #-416	; 0xfffffe60
40300718:	6f77206f 	svcvs	0x0077206f
4030071c:	21646c72 	smccs	18114	; 0x46c2
40300720:	0a0d2121 	beq	40648bac <msgCount+0x348440>
	...

Disassembly of section .bss:

40300728 <ptrGPIO3>:
40300728:	00000000 	andeq	r0, r0, r0

4030072c <ptrUart>:
4030072c:	00000000 	andeq	r0, r0, r0

40300730 <ptrUart_SYSC>:
40300730:	00000000 	andeq	r0, r0, r0

40300734 <ptrUart_SYSS>:
40300734:	00000000 	andeq	r0, r0, r0

40300738 <ptrUart_LCR>:
40300738:	00000000 	andeq	r0, r0, r0

4030073c <ptrUart_MDR1>:
4030073c:	00000000 	andeq	r0, r0, r0

40300740 <ptrUart_DLL>:
40300740:	00000000 	andeq	r0, r0, r0

40300744 <ptrUart_DLH>:
40300744:	00000000 	andeq	r0, r0, r0

40300748 <ptrUart_IER>:
40300748:	00000000 	andeq	r0, r0, r0

4030074c <ptrUart_EFR>:
4030074c:	00000000 	andeq	r0, r0, r0

40300750 <ptrUart_FCR>:
40300750:	00000000 	andeq	r0, r0, r0

40300754 <ptrUart_THR>:
40300754:	00000000 	andeq	r0, r0, r0

40300758 <ptrUart_SSR>:
40300758:	00000000 	andeq	r0, r0, r0

4030075c <ptrUart_MCR>:
4030075c:	00000000 	andeq	r0, r0, r0

40300760 <ptrUart_TLR>:
40300760:	00000000 	andeq	r0, r0, r0

40300764 <ptrUart_TCR>:
40300764:	00000000 	andeq	r0, r0, r0

40300768 <ptrUart_LSR>:
40300768:	00000000 	andeq	r0, r0, r0

4030076c <msgCount>:
	...

Disassembly of section .comment:

00000000 <.comment>:
   0:	3a434347 	bcc	10d0d24 <main-0x3f22f2dc>
   4:	4e472820 	cdpmi	8, 4, cr2, cr7, cr0, {1}
   8:	72412055 	subvc	r2, r1, #85	; 0x55
   c:	6d45206d 	stclvs	0, cr2, [r5, #-436]	; 0xfffffe4c
  10:	64646562 	strbtvs	r6, [r4], #-1378	; 0xfffffa9e
  14:	54206465 	strtpl	r6, [r0], #-1125	; 0xfffffb9b
  18:	636c6f6f 	cmnvs	ip, #444	; 0x1bc
  1c:	6e696168 	powvsez	f6, f1, #0.0
  20:	2e303120 	rsfcssp	f3, f0, f0
  24:	30322d33 	eorscc	r2, r2, r3, lsr sp
  28:	312e3132 			; <UNDEFINED> instruction: 0x312e3132
  2c:	31202930 			; <UNDEFINED> instruction: 0x31202930
  30:	2e332e30 	mrccs	14, 1, r2, cr3, cr0, {1}
  34:	30322031 	eorscc	r2, r2, r1, lsr r0
  38:	38303132 	ldmdacc	r0!, {r1, r4, r5, r8, ip, sp}
  3c:	28203432 	stmdacs	r0!, {r1, r4, r5, sl, ip, sp}
  40:	656c6572 	strbvs	r6, [ip, #-1394]!	; 0xfffffa8e
  44:	29657361 	stmdbcs	r5!, {r0, r5, r6, r8, r9, ip, sp, lr}^
	...

Disassembly of section .ARM.attributes:

00000000 <.ARM.attributes>:
   0:	00002941 	andeq	r2, r0, r1, asr #18
   4:	61656100 	cmnvs	r5, r0, lsl #2
   8:	01006962 	tsteq	r0, r2, ror #18
   c:	0000001f 	andeq	r0, r0, pc, lsl r0
  10:	00543405 	subseq	r3, r4, r5, lsl #8
  14:	01080206 	tsteq	r8, r6, lsl #4
  18:	04120109 	ldreq	r0, [r2], #-265	; 0xfffffef7
  1c:	01150114 	tsteq	r5, r4, lsl r1
  20:	01180317 	tsteq	r8, r7, lsl r3
  24:	011a0119 	tsteq	sl, r9, lsl r1
  28:	Address 0x00000028 is out of bounds.

